; Function Attrs: mustprogress nounwind uwtable
define noundef zeroext i1 @_ZN7glslang11HlslGrammar18acceptFunctionBodyERNS_19TFunctionDeclaratorERP11TIntermNode(ptr noundef nonnull align 8 dereferenceable(360) %0, ptr noundef nonnull align 8 dereferenceable(72) %1, ptr nocapture noundef nonnull align 8 dereferenceable(8) %2) local_unnamed_addr #0 align 2 {
  %4 = alloca ptr, align 8
  %5 = alloca ptr, align 8
  %6 = alloca ptr, align 8
  store ptr null, ptr %4, align 8
  %7 = getelementptr inbounds i8, ptr %0, i64 328
  %8 = load ptr, ptr %7, align 8
  %9 = getelementptr inbounds i8, ptr %1, i64 24
  %10 = load ptr, ptr %9, align 8
  %11 = getelementptr inbounds i8, ptr %1, i64 32
  %12 = call noundef ptr @_ZN7glslang16HlslParseContext24handleFunctionDefinitionERKNS_10TSourceLocERNS_9TFunctionERKNS_5TListINS_14TAttributeArgsEEERP11TIntermNode(ptr noundef nonnull align 8 dereferenceable(2489) %8, ptr noundef nonnull align 8 dereferenceable(24) %1, ptr noundef nonnull align 8 dereferenceable(340) %10, ptr noundef nonnull align 8 dereferenceable(32) %11, ptr noundef nonnull align 8 dereferenceable(8) %4) #16
  store ptr %12, ptr %5, align 8
  store ptr null, ptr %6, align 8
  %13 = call noundef zeroext i1 @_ZN7glslang11HlslGrammar23acceptCompoundStatementERP11TIntermNode(ptr noundef nonnull align 8 dereferenceable(360) %0, ptr noundef nonnull align 8 dereferenceable(8) %6)
  br i1 %13, label %14, label %26

14:                                               ; preds = %3
  %15 = load ptr, ptr %7, align 8
  %16 = load ptr, ptr %9, align 8
  %17 = load ptr, ptr %6, align 8
  call void @_ZN7glslang16HlslParseContext18handleFunctionBodyERKNS_10TSourceLocERNS_9TFunctionEP11TIntermNodeRS7_(ptr noundef nonnull align 8 dereferenceable(2489) %15, ptr noundef nonnull align 8 dereferenceable(24) %1, ptr noundef nonnull align 8 dereferenceable(340) %16, ptr noundef %17, ptr noundef nonnull align 8 dereferenceable(8) %5) #16
  %18 = getelementptr inbounds i8, ptr %0, i64 336
  %19 = load ptr, ptr %18, align 8
  %20 = load ptr, ptr %2, align 8
  %21 = load ptr, ptr %5, align 8
  %22 = call noundef ptr @_ZN7glslang13TIntermediate13growAggregateEP11TIntermNodeS2_(ptr noundef nonnull align 8 dereferenceable(2024) %19, ptr noundef %20, ptr noundef %21) #16
  store ptr %22, ptr %2, align 8
  %23 = load ptr, ptr %18, align 8
  %24 = load ptr, ptr %4, align 8
  %25 = call noundef ptr @_ZN7glslang13TIntermediate13growAggregateEP11TIntermNodeS2_(ptr noundef nonnull align 8 dereferenceable(2024) %23, ptr noundef %22, ptr noundef %24) #16
  store ptr %25, ptr %2, align 8
  br label %26

26:                                               ; preds = %3, %14
  ret i1 %13
}